(dp0
S'knyaz_vladimir_delay5_frame143.png'
p1
I0
sS'neftyanoe_mesto_delay5_frame105.png'
p2
I1
sS'knyaz_vladimir_delay5_frame142.png'
p3
I0
sS'autodizel_delay10_frame038.png'
p4
I1
sS'autodizel_delay10_frame114.png'
p5
I1
sS'verit_gramoty_delay10_frame131.png'
p6
I0
sS'neftyanoe_mesto_delay5_frame097.png'
p7
I0
sS'knyaz_vladimir_delay5_frame033.png'
p8
I1
sS'knyaz_vladimir_delay5_frame043.png'
p9
I1
sS'verit_gramoty_delay10_frame142.png'
p10
I0
sS'autodizel_delay10_frame376.png'
p11
I0
sS'autodizel_delay10_frame050.png'
p12
I0
sS'autodizel_delay10_frame013.png'
p13
I1
sS'autodizel_delay10_frame288.png'
p14
I1
sS'autodizel_delay10_frame112.png'
p15
I0
sS'knyaz_vladimir_delay5_frame134.png'
p16
I0
sS'autodizel_delay10_frame131.png'
p17
I1
sS'verit_gramoty_delay10_frame146.png'
p18
I1
sS'knyaz_vladimir_delay5_frame007.png'
p19
I0
sS'autodizel_delay10_frame216.png'
p20
I1
sS'knyaz_vladimir_delay5_frame145.png'
p21
I1
sS'knyaz_vladimir_delay5_frame035.png'
p22
I0
sS'autodizel_delay10_frame009.png'
p23
I1
sS'verit_gramoty_delay10_frame158.png'
p24
I0
sS'neftyanoe_mesto_delay5_frame002.png'
p25
I1
sS'autodizel_delay10_frame027.png'
p26
I0
sS'autodizel_delay10_frame121.png'
p27
I0
sS'autodizel_delay10_frame325.png'
p28
I1
sS'neftyanoe_mesto_delay5_frame007.png'
p29
I1
sS'autodizel_delay10_frame006.png'
p30
I0
sS'verit_gramoty_delay10_frame058.png'
p31
I0
sS'neftyanoe_mesto_delay5_frame045.png'
p32
I1
sS'autodizel_delay10_frame174.png'
p33
I1
sS'autodizel_delay10_frame043.png'
p34
I1
sS'verit_gramoty_delay10_frame035.png'
p35
I1
sS'autodizel_delay10_frame048.png'
p36
I1
sS'autodizel_delay10_frame058.png'
p37
I1
sS'autodizel_delay10_frame092.png'
p38
I1
sS'autodizel_delay10_frame154.png'
p39
I0
sS'neftyanoe_mesto_delay5_frame027.png'
p40
I1
sS'autodizel_delay10_frame329.png'
p41
I0
sS'autodizel_delay10_frame018.png'
p42
I1
sS'neftyanoe_mesto_delay5_frame024.png'
p43
I0
sS'autodizel_delay10_frame270.png'
p44
I1
sS'autodizel_delay10_frame184.png'
p45
I1
sS'knyaz_vladimir_delay5_frame181.png'
p46
I0
sS'autodizel_delay10_frame275.png'
p47
I0
sS'verit_gramoty_delay10_frame136.png'
p48
I1
sS'knyaz_vladimir_delay5_frame105.png'
p49
I0
sS'verit_gramoty_delay10_frame084.png'
p50
I1
sS'autodizel_delay10_frame202.png'
p51
I1
sS'verit_gramoty_delay10_frame064.png'
p52
I0
sS'autodizel_delay10_frame172.png'
p53
I1
sS'verit_gramoty_delay10_frame020.png'
p54
I0
sS'autodizel_delay10_frame344.png'
p55
I1
sS'verit_gramoty_delay10_frame175.png'
p56
I0
sS'autodizel_delay10_frame229.png'
p57
I1
sS'autodizel_delay10_frame168.png'
p58
I1
sS'knyaz_vladimir_delay5_frame135.png'
p59
I0
sS'verit_gramoty_delay10_frame157.png'
p60
I0
sS'autodizel_delay10_frame082.png'
p61
I0
sS'autodizel_delay10_frame214.png'
p62
I0
sS'autodizel_delay10_frame200.png'
p63
I0
sS'verit_gramoty_delay10_frame077.png'
p64
I0
sS'autodizel_delay10_frame204.png'
p65
I1
sS'autodizel_delay10_frame372.png'
p66
I1
sS'neftyanoe_mesto_delay5_frame102.png'
p67
I1
sS'autodizel_delay10_frame226.png'
p68
I1
sS'knyaz_vladimir_delay5_frame020.png'
p69
I1
sS'autodizel_delay10_frame233.png'
p70
I0
sS'verit_gramoty_delay10_frame160.png'
p71
I1
sS'neftyanoe_mesto_delay5_frame001.png'
p72
I0
sS'autodizel_delay10_frame181.png'
p73
I0
sS'autodizel_delay10_frame263.png'
p74
I1
sS'knyaz_vladimir_delay5_frame100.png'
p75
I0
sS'verit_gramoty_delay10_frame008.png'
p76
I1
sS'autodizel_delay10_frame094.png'
p77
I0
sS'verit_gramoty_delay10_frame103.png'
p78
I1
sS'verit_gramoty_delay10_frame045.png'
p79
I0
sS'verit_gramoty_delay10_frame172.png'
p80
I0
sS'verit_gramoty_delay10_frame116.png'
p81
I0
sS'autodizel_delay10_frame370.png'
p82
I0
sS'autodizel_delay10_frame361.png'
p83
I1
sS'knyaz_vladimir_delay5_frame093.png'
p84
I0
sS'verit_gramoty_delay10_frame037.png'
p85
I1
sS'autodizel_delay10_frame357.png'
p86
I1
sS'verit_gramoty_delay10_frame009.png'
p87
I0
sS'autodizel_delay10_frame334.png'
p88
I0
sS'autodizel_delay10_frame198.png'
p89
I0
sS'verit_gramoty_delay10_frame042.png'
p90
I0
sS'autodizel_delay10_frame322.png'
p91
I0
sS'verit_gramoty_delay10_frame105.png'
p92
I1
sS'autodizel_delay10_frame056.png'
p93
I0
sS'autodizel_delay10_frame323.png'
p94
I1
sS'neftyanoe_mesto_delay5_frame026.png'
p95
I0
sS'knyaz_vladimir_delay5_frame057.png'
p96
I1
sS'autodizel_delay10_frame272.png'
p97
I0
sS'verit_gramoty_delay10_frame095.png'
p98
I1
sS'autodizel_delay10_frame392.png'
p99
I0
sS'autodizel_delay10_frame336.png'
p100
I0
sS'autodizel_delay10_frame148.png'
p101
I1
sS'verit_gramoty_delay10_frame073.png'
p102
I1
sS'verit_gramoty_delay10_frame110.png'
p103
I0
sS'knyaz_vladimir_delay5_frame153.png'
p104
I0
sS'autodizel_delay10_frame067.png'
p105
I1
sS'verit_gramoty_delay10_frame127.png'
p106
I1
sS'verit_gramoty_delay10_frame003.png'
p107
I0
sS'knyaz_vladimir_delay5_frame161.png'
p108
I1
sS'autodizel_delay10_frame256.png'
p109
I0
sS'autodizel_delay10_frame346.png'
p110
I1
sS'autodizel_delay10_frame116.png'
p111
I1
sS'autodizel_delay10_frame394.png'
p112
I1
sS'verit_gramoty_delay10_frame050.png'
p113
I0
sS'verit_gramoty_delay10_frame112.png'
p114
I1
sS'autodizel_delay10_frame391.png'
p115
I1
sS'autodizel_delay10_frame084.png'
p116
I0
sS'knyaz_vladimir_delay5_frame117.png'
p117
I0
sS'verit_gramoty_delay10_frame047.png'
p118
I0
sS'autodizel_delay10_frame119.png'
p119
I1
sS'verit_gramoty_delay10_frame075.png'
p120
I1
sS'verit_gramoty_delay10_frame052.png'
p121
I0
sS'autodizel_delay10_frame045.png'
p122
I1
sS'verit_gramoty_delay10_frame062.png'
p123
I0
sS'autodizel_delay10_frame261.png'
p124
I1
sS'autodizel_delay10_frame244.png'
p125
I0
sS'autodizel_delay10_frame369.png'
p126
I1
sS'autodizel_delay10_frame125.png'
p127
I1
sS'autodizel_delay10_frame096.png'
p128
I1
sS'verit_gramoty_delay10_frame141.png'
p129
I1
sS'autodizel_delay10_frame086.png'
p130
I1
sS'verit_gramoty_delay10_frame090.png'
p131
I1
sS'neftyanoe_mesto_delay5_frame009.png'
p132
I1
sS'autodizel_delay10_frame237.png'
p133
I0
sS'knyaz_vladimir_delay5_frame140.png'
p134
I1
sS'neftyanoe_mesto_delay5_frame041.png'
p135
I0
sS'autodizel_delay10_frame249.png'
p136
I0
sS'autodizel_delay10_frame042.png'
p137
I0
sS'knyaz_vladimir_delay5_frame081.png'
p138
I0
sS'autodizel_delay10_frame242.png'
p139
I0
sS'autodizel_delay10_frame397.png'
p140
I0
sS'autodizel_delay10_frame197.png'
p141
I0
sS'autodizel_delay10_frame332.png'
p142
I0
sS'verit_gramoty_delay10_frame082.png'
p143
I0
sS'autodizel_delay10_frame260.png'
p144
I0
sS'verit_gramoty_delay10_frame091.png'
p145
I1
sS'autodizel_delay10_frame213.png'
p146
I0
sS'autodizel_delay10_frame365.png'
p147
I1
sS'autodizel_delay10_frame054.png'
p148
I1
sS'autodizel_delay10_frame033.png'
p149
I0
sS'knyaz_vladimir_delay5_frame055.png'
p150
I0
sS'autodizel_delay10_frame040.png'
p151
I1
sS'verit_gramoty_delay10_frame076.png'
p152
I0
sS'knyaz_vladimir_delay5_frame023.png'
p153
I1
sS'autodizel_delay10_frame340.png'
p154
I1
sS'autodizel_delay10_frame239.png'
p155
I0
sS'knyaz_vladimir_delay5_frame003.png'
p156
I0
sS'verit_gramoty_delay10_frame028.png'
p157
I1
sS'knyaz_vladimir_delay5_frame040.png'
p158
I1
sS'autodizel_delay10_frame367.png'
p159
I1
sS'autodizel_delay10_frame052.png'
p160
I1
sS'autodizel_delay10_frame231.png'
p161
I0
sS'neftyanoe_mesto_delay5_frame019.png'
p162
I0
sS'autodizel_delay10_frame327.png'
p163
I0
sS'verit_gramoty_delay10_frame025.png'
p164
I0
sS'autodizel_delay10_frame277.png'
p165
I1
sS'autodizel_delay10_frame208.png'
p166
I0
sS'neftyanoe_mesto_delay5_frame084.png'
p167
I0
sS'autodizel_delay10_frame319.png'
p168
I0
sS'verit_gramoty_delay10_frame144.png'
p169
I1
sS'neftyanoe_mesto_delay5_frame021.png'
p170
I0
sS'verit_gramoty_delay10_frame060.png'
p171
I1
sS'autodizel_delay10_frame284.png'
p172
I1
sS'autodizel_delay10_frame380.png'
p173
I0
sS'verit_gramoty_delay10_frame163.png'
p174
I1
sS'autodizel_delay10_frame353.png'
p175
I1
sS'verit_gramoty_delay10_frame030.png'
p176
I0
sS'autodizel_delay10_frame191.png'
p177
I0
sS'verit_gramoty_delay10_frame173.png'
p178
I0
sS'verit_gramoty_delay10_frame013.png'
p179
I0
sS'verit_gramoty_delay10_frame108.png'
p180
I0
sS'autodizel_delay10_frame026.png'
p181
I1
sS'autodizel_delay10_frame356.png'
p182
I1
sS'knyaz_vladimir_delay5_frame029.png'
p183
I0
sS'verit_gramoty_delay10_frame067.png'
p184
I0
sS'neftyanoe_mesto_delay5_frame093.png'
p185
I1
sS'knyaz_vladimir_delay5_frame032.png'
p186
I1
sS'autodizel_delay10_frame061.png'
p187
I0
sS'knyaz_vladimir_delay5_frame001.png'
p188
I0
sS'autodizel_delay10_frame250.png'
p189
I0
sS'verit_gramoty_delay10_frame017.png'
p190
I1
sS'verit_gramoty_delay10_frame119.png'
p191
I0
sS'autodizel_delay10_frame354.png'
p192
I1
sS'knyaz_vladimir_delay5_frame151.png'
p193
I0
sS'verit_gramoty_delay10_frame125.png'
p194
I1
sS'verit_gramoty_delay10_frame001.png'
p195
I0
sS'knyaz_vladimir_delay5_frame115.png'
p196
I1
sS'autodizel_delay10_frame290.png'
p197
I0
sS'knyaz_vladimir_delay5_frame017.png'
p198
I1
sS'autodizel_delay10_frame140.png'
p199
I1
sS'autodizel_delay10_frame008.png'
p200
I0
sS'autodizel_delay10_frame390.png'
p201
I0
sS'verit_gramoty_delay10_frame145.png'
p202
I1
sS'verit_gramoty_delay10_frame005.png'
p203
I0
sS'autodizel_delay10_frame005.png'
p204
I1
sS'verit_gramoty_delay10_frame032.png'
p205
I1
sS'autodizel_delay10_frame302.png'
p206
I1
sS'autodizel_delay10_frame069.png'
p207
I1
sS'verit_gramoty_delay10_frame159.png'
p208
I0
sS'autodizel_delay10_frame166.png'
p209
I0
sS'autodizel_delay10_frame102.png'
p210
I1
sS'verit_gramoty_delay10_frame117.png'
p211
I1
sS'autodizel_delay10_frame348.png'
p212
I0
sS'neftyanoe_mesto_delay5_frame008.png'
p213
I1
sS'autodizel_delay10_frame382.png'
p214
I1
sS'autodizel_delay10_frame401.png'
p215
I0
sS'verit_gramoty_delay10_frame118.png'
p216
I0
sS'verit_gramoty_delay10_frame156.png'
p217
I0
sS'autodizel_delay10_frame240.png'
p218
I1
sS'autodizel_delay10_frame193.png'
p219
I0
sS'verit_gramoty_delay10_frame036.png'
p220
I0
sS'autodizel_delay10_frame157.png'
p221
I1
sS'knyaz_vladimir_delay5_frame036.png'
p222
I0
sS'autodizel_delay10_frame072.png'
p223
I1
sS'verit_gramoty_delay10_frame180.png'
p224
I1
sS'autodizel_delay10_frame104.png'
p225
I1
sS'autodizel_delay10_frame161.png'
p226
I1
sS'neftyanoe_mesto_delay5_frame028.png'
p227
I1
sS'autodizel_delay10_frame135.png'
p228
I1
sS'autodizel_delay10_frame311.png'
p229
I1
sS'verit_gramoty_delay10_frame150.png'
p230
I0
sS'autodizel_delay10_frame158.png'
p231
I0
sS'autodizel_delay10_frame063.png'
p232
I1
sS'autodizel_delay10_frame100.png'
p233
I0
sS'autodizel_delay10_frame252.png'
p234
I0
sS'autodizel_delay10_frame279.png'
p235
I1
sS'verit_gramoty_delay10_frame015.png'
p236
I0
sS'autodizel_delay10_frame293.png'
p237
I1
sS'neftyanoe_mesto_delay5_frame038.png'
p238
I1
sS'autodizel_delay10_frame342.png'
p239
I1
sS'knyaz_vladimir_delay5_frame138.png'
p240
I1
sS'verit_gramoty_delay10_frame026.png'
p241
I0
sS'autodizel_delay10_frame127.png'
p242
I1
sS'autodizel_delay10_frame093.png'
p243
I0
sS'verit_gramoty_delay10_frame109.png'
p244
I0
sS'knyaz_vladimir_delay5_frame118.png'
p245
I0
sS'knyaz_vladimir_delay5_frame030.png'
p246
I1
sS'autodizel_delay10_frame206.png'
p247
I1
sS'verit_gramoty_delay10_frame000.png'
p248
I1
sS'autodizel_delay10_frame254.png'
p249
I1
sS'neftyanoe_mesto_delay5_frame025.png'
p250
I0
sS'neftyanoe_mesto_delay5_frame017.png'
p251
I0
sS'autodizel_delay10_frame183.png'
p252
I1
sS'verit_gramoty_delay10_frame094.png'
p253
I1
sS'knyaz_vladimir_delay5_frame038.png'
p254
I1
sS'verit_gramoty_delay10_frame138.png'
p255
I0
sS'verit_gramoty_delay10_frame151.png'
p256
I0
sS'autodizel_delay10_frame076.png'
p257
I1
sS'verit_gramoty_delay10_frame099.png'
p258
I1
sS'autodizel_delay10_frame363.png'
p259
I1
sS'knyaz_vladimir_delay5_frame132.png'
p260
I1
sS'autodizel_delay10_frame347.png'
p261
I1
sS'knyaz_vladimir_delay5_frame122.png'
p262
I1
sS'autodizel_delay10_frame185.png'
p263
I0
sS'knyaz_vladimir_delay5_frame104.png'
p264
I0
sS'verit_gramoty_delay10_frame143.png'
p265
I0
sS'autodizel_delay10_frame317.png'
p266
I1
sS'autodizel_delay10_frame150.png'
p267
I1
sS'verit_gramoty_delay10_frame177.png'
p268
I0
sS'autodizel_delay10_frame109.png'
p269
I1
sS'knyaz_vladimir_delay5_frame125.png'
p270
I1
sS'verit_gramoty_delay10_frame069.png'
p271
I1
sS'autodizel_delay10_frame097.png'
p272
I1
sS'verit_gramoty_delay10_frame072.png'
p273
I0
sS'autodizel_delay10_frame146.png'
p274
I1
sS'verit_gramoty_delay10_frame022.png'
p275
I0
sS'verit_gramoty_delay10_frame041.png'
p276
I0
sS'knyaz_vladimir_delay5_frame086.png'
p277
I1
sS'verit_gramoty_delay10_frame088.png'
p278
I1
sS'autodizel_delay10_frame282.png'
p279
I0
sS'autodizel_delay10_frame049.png'
p280
I1
sS'autodizel_delay10_frame010.png'
p281
I1
sS'verit_gramoty_delay10_frame132.png'
p282
I1
sS'autodizel_delay10_frame299.png'
p283
I0
sS'autodizel_delay10_frame015.png'
p284
I1
sS'autodizel_delay10_frame306.png'
p285
I1
sS'knyaz_vladimir_delay5_frame018.png'
p286
I0
sS'autodizel_delay10_frame062.png'
p287
I1
sS'verit_gramoty_delay10_frame057.png'
p288
I0
sS'autodizel_delay10_frame044.png'
p289
I1
sS'autodizel_delay10_frame281.png'
p290
I1
sS'verit_gramoty_delay10_frame169.png'
p291
I0
sS'neftyanoe_mesto_delay5_frame003.png'
p292
I1
sS'autodizel_delay10_frame126.png'
p293
I0
sS'autodizel_delay10_frame021.png'
p294
I1
sS'autodizel_delay10_frame074.png'
p295
I1
sS'autodizel_delay10_frame060.png'
p296
I0
sS'autodizel_delay10_frame064.png'
p297
I1
sS'autodizel_delay10_frame227.png'
p298
I0
sS'autodizel_delay10_frame046.png'
p299
I1
sS'autodizel_delay10_frame053.png'
p300
I1
sS'neftyanoe_mesto_delay5_frame055.png'
p301
I1
sS'autodizel_delay10_frame003.png'
p302
I0
sS'verit_gramoty_delay10_frame154.png'
p303
I0
sS'autodizel_delay10_frame315.png'
p304
I0
sS'knyaz_vladimir_delay5_frame172.png'
p305
I0
sS'verit_gramoty_delay10_frame101.png'
p306
I0
sS'verit_gramoty_delay10_frame027.png'
p307
I0
sS'autodizel_delay10_frame156.png'
p308
I1
sS'verit_gramoty_delay10_frame167.png'
p309
I0
sS'autodizel_delay10_frame221.png'
p310
I1
sS'knyaz_vladimir_delay5_frame162.png'
p311
I1
sS'autodizel_delay10_frame276.png'
p312
I1
sS'autodizel_delay10_frame352.png'
p313
I0
sS'autodizel_delay10_frame194.png'
p314
I0
sS'verit_gramoty_delay10_frame129.png'
p315
I1
sS'autodizel_delay10_frame144.png'
p316
I1
sS'knyaz_vladimir_delay5_frame165.png'
p317
I0
sS'autodizel_delay10_frame235.png'
p318
I0
sS'autodizel_delay10_frame377.png'
p319
I1
sS'autodizel_delay10_frame012.png'
p320
I0
sS'neftyanoe_mesto_delay5_frame012.png'
p321
I1
sS'autodizel_delay10_frame132.png'
p322
I0
sS'autodizel_delay10_frame388.png'
p323
I1
sS'autodizel_delay10_frame387.png'
p324
I1
sS'autodizel_delay10_frame196.png'
p325
I1
sS'autodizel_delay10_frame129.png'
p326
I1
sS'autodizel_delay10_frame330.png'
p327
I1
sS'knyaz_vladimir_delay5_frame015.png'
p328
I1
sS'verit_gramoty_delay10_frame070.png'
p329
I0
sS'knyaz_vladimir_delay5_frame025.png'
p330
I0
sS'autodizel_delay10_frame358.png'
p331
I1
sS'autodizel_delay10_frame036.png'
p332
I0
sS'knyaz_vladimir_delay5_frame133.png'
p333
I0
sS'verit_gramoty_delay10_frame179.png'
p334
I0
sS'autodizel_delay10_frame134.png'
p335
I0
sS'autodizel_delay10_frame081.png'
p336
I0
sS'verit_gramoty_delay10_frame078.png'
p337
I1
sS'knyaz_vladimir_delay5_frame013.png'
p338
I1
sS'knyaz_vladimir_delay5_frame090.png'
p339
I0
sS'verit_gramoty_delay10_frame038.png'
p340
I0
sS'autodizel_delay10_frame001.png'
p341
I1
sS'autodizel_delay10_frame024.png'
p342
I1
sS'verit_gramoty_delay10_frame137.png'
p343
I0
sS'autodizel_delay10_frame057.png'
p344
I1
sS'neftyanoe_mesto_delay5_frame046.png'
p345
I0
sS'autodizel_delay10_frame029.png'
p346
I1
sS'autodizel_delay10_frame383.png'
p347
I1
sS'verit_gramoty_delay10_frame152.png'
p348
I1
sS'knyaz_vladimir_delay5_frame171.png'
p349
I0
sS'autodizel_delay10_frame022.png'
p350
I1
sS'autodizel_delay10_frame137.png'
p351
I1
sS'autodizel_delay10_frame219.png'
p352
I0
sS'verit_gramoty_delay10_frame048.png'
p353
I0
sS'autodizel_delay10_frame130.png'
p354
I0
sS'neftyanoe_mesto_delay5_frame092.png'
p355
I1
sS'verit_gramoty_delay10_frame122.png'
p356
I0
sS'autodizel_delay10_frame073.png'
p357
I1
sS'autodizel_delay10_frame399.png'
p358
I1
sS'verit_gramoty_delay10_frame034.png'
p359
I1
sS'neftyanoe_mesto_delay5_frame042.png'
p360
I0
sS'autodizel_delay10_frame386.png'
p361
I1
sS'autodizel_delay10_frame115.png'
p362
I1
sS'autodizel_delay10_frame278.png'
p363
I1
sS'autodizel_delay10_frame059.png'
p364
I1
sS'knyaz_vladimir_delay5_frame041.png'
p365
I0
sS'autodizel_delay10_frame241.png'
p366
I1
sS'autodizel_delay10_frame205.png'
p367
I1
sS'verit_gramoty_delay10_frame161.png'
p368
I0
sS'autodizel_delay10_frame167.png'
p369
I0
sS'autodizel_delay10_frame366.png'
p370
I1
sS'autodizel_delay10_frame051.png'
p371
I1
sS'verit_gramoty_delay10_frame004.png'
p372
I1
sS'autodizel_delay10_frame289.png'
p373
I1
sS'autodizel_delay10_frame243.png'
p374
I0
sS'autodizel_delay10_frame267.png'
p375
I0
sS'autodizel_delay10_frame187.png'
p376
I0
sS'autodizel_delay10_frame068.png'
p377
I1
sS'verit_gramoty_delay10_frame153.png'
p378
I0
sS'autodizel_delay10_frame147.png'
p379
I0
sS'verit_gramoty_delay10_frame051.png'
p380
I0
sS'verit_gramoty_delay10_frame133.png'
p381
I0
sS'autodizel_delay10_frame143.png'
p382
I0
sS'autodizel_delay10_frame295.png'
p383
I1
sS'autodizel_delay10_frame165.png'
p384
I0
sS'autodizel_delay10_frame255.png'
p385
I1
sS'autodizel_delay10_frame031.png'
p386
I1
sS'knyaz_vladimir_delay5_frame006.png'
p387
I0
sS'autodizel_delay10_frame152.png'
p388
I0
sS'verit_gramoty_delay10_frame100.png'
p389
I0
sS'autodizel_delay10_frame211.png'
p390
I0
sS'verit_gramoty_delay10_frame114.png'
p391
I0
sS'autodizel_delay10_frame371.png'
p392
I0
sS'knyaz_vladimir_delay5_frame170.png'
p393
I0
sS'verit_gramoty_delay10_frame019.png'
p394
I0
sS'knyaz_vladimir_delay5_frame063.png'
p395
I0
sS'autodizel_delay10_frame312.png'
p396
I1
sS'neftyanoe_mesto_delay5_frame000.png'
p397
I1
sS'autodizel_delay10_frame099.png'
p398
I1
sS'verit_gramoty_delay10_frame107.png'
p399
I1
sS'verit_gramoty_delay10_frame178.png'
p400
I1
sS'knyaz_vladimir_delay5_frame000.png'
p401
I0
sS'autodizel_delay10_frame030.png'
p402
I1
sS'knyaz_vladimir_delay5_frame141.png'
p403
I1
sS'neftyanoe_mesto_delay5_frame040.png'
p404
I0
sS'autodizel_delay10_frame117.png'
p405
I1
sS'autodizel_delay10_frame179.png'
p406
I1
sS'autodizel_delay10_frame271.png'
p407
I1
sS'neftyanoe_mesto_delay5_frame011.png'
p408
I1
sS'autodizel_delay10_frame310.png'
p409
I1
sS'autodizel_delay10_frame389.png'
p410
I1
sS'autodizel_delay10_frame085.png'
p411
I1
sS'knyaz_vladimir_delay5_frame088.png'
p412
I0
sS'verit_gramoty_delay10_frame055.png'
p413
I0
sS'knyaz_vladimir_delay5_frame069.png'
p414
I0
sS'neftyanoe_mesto_delay5_frame106.png'
p415
I1
sS'autodizel_delay10_frame173.png'
p416
I0
sS'autodizel_delay10_frame320.png'
p417
I1
sS'autodizel_delay10_frame039.png'
p418
I1
sS'autodizel_delay10_frame345.png'
p419
I0
sS'autodizel_delay10_frame178.png'
p420
I0
sS'verit_gramoty_delay10_frame102.png'
p421
I0
sS'verit_gramoty_delay10_frame053.png'
p422
I1
sS'knyaz_vladimir_delay5_frame034.png'
p423
I1
sS'knyaz_vladimir_delay5_frame174.png'
p424
I1
sS'verit_gramoty_delay10_frame081.png'
p425
I0
sS'knyaz_vladimir_delay5_frame044.png'
p426
I0
sS'autodizel_delay10_frame122.png'
p427
I1
sS'autodizel_delay10_frame262.png'
p428
I0
sS'autodizel_delay10_frame343.png'
p429
I1
sS'autodizel_delay10_frame020.png'
p430
I1
sS'autodizel_delay10_frame078.png'
p431
I0
sS'verit_gramoty_delay10_frame128.png'
p432
I0
sS'verit_gramoty_delay10_frame164.png'
p433
I1
sS'neftyanoe_mesto_delay5_frame023.png'
p434
I1
sS'autodizel_delay10_frame251.png'
p435
I0
sS'neftyanoe_mesto_delay5_frame104.png'
p436
I0
sS'autodizel_delay10_frame106.png'
p437
I1
sS'autodizel_delay10_frame028.png'
p438
I0
sS'verit_gramoty_delay10_frame083.png'
p439
I0
sS'verit_gramoty_delay10_frame086.png'
p440
I1
sS'autodizel_delay10_frame264.png'
p441
I1
sS'autodizel_delay10_frame274.png'
p442
I0
sS'knyaz_vladimir_delay5_frame089.png'
p443
I0
sS'autodizel_delay10_frame314.png'
p444
I0
sS'autodizel_delay10_frame308.png'
p445
I0
sS'verit_gramoty_delay10_frame182.png'
p446
I1
sS'autodizel_delay10_frame032.png'
p447
I1
sS'autodizel_delay10_frame019.png'
p448
I0
sS'knyaz_vladimir_delay5_frame099.png'
p449
I0
sS'autodizel_delay10_frame393.png'
p450
I0
sS'autodizel_delay10_frame326.png'
p451
I0
sS'autodizel_delay10_frame396.png'
p452
I1
sS'neftyanoe_mesto_delay5_frame081.png'
p453
I1
sS'autodizel_delay10_frame095.png'
p454
I1
sS'verit_gramoty_delay10_frame096.png'
p455
I0
sS'autodizel_delay10_frame066.png'
p456
I1
sS'verit_gramoty_delay10_frame002.png'
p457
I0
sS'autodizel_delay10_frame034.png'
p458
I0
sS'autodizel_delay10_frame257.png'
p459
I1
sS'autodizel_delay10_frame384.png'
p460
I0
sS'autodizel_delay10_frame300.png'
p461
I0
sS'knyaz_vladimir_delay5_frame116.png'
p462
I1
sS'verit_gramoty_delay10_frame080.png'
p463
I1
sS'neftyanoe_mesto_delay5_frame047.png'
p464
I0
sS'verit_gramoty_delay10_frame165.png'
p465
I0
sS'autodizel_delay10_frame398.png'
p466
I1
sS'autodizel_delay10_frame245.png'
p467
I0
sS'neftyanoe_mesto_delay5_frame006.png'
p468
I1
sS'neftyanoe_mesto_delay5_frame096.png'
p469
I0
sS'neftyanoe_mesto_delay5_frame082.png'
p470
I1
sS'verit_gramoty_delay10_frame046.png'
p471
I1
sS'autodizel_delay10_frame215.png'
p472
I1
sS'verit_gramoty_delay10_frame140.png'
p473
I0
sS'autodizel_delay10_frame339.png'
p474
I1
sS'verit_gramoty_delay10_frame011.png'
p475
I1
sS'verit_gramoty_delay10_frame115.png'
p476
I1
sS'verit_gramoty_delay10_frame170.png'
p477
I1
sS'knyaz_vladimir_delay5_frame087.png'
p478
I1
sS'autodizel_delay10_frame000.png'
p479
I0
sS'autodizel_delay10_frame379.png'
p480
I1
sS'verit_gramoty_delay10_frame023.png'
p481
I0
sS'verit_gramoty_delay10_frame039.png'
p482
I0
sS'knyaz_vladimir_delay5_frame101.png'
p483
I0
sS'knyaz_vladimir_delay5_frame014.png'
p484
I0
sS'autodizel_delay10_frame217.png'
p485
I0
sS'verit_gramoty_delay10_frame040.png'
p486
I1
sS'autodizel_delay10_frame175.png'
p487
I1
sS'verit_gramoty_delay10_frame181.png'
p488
I0
sS'knyaz_vladimir_delay5_frame160.png'
p489
I0
sS'verit_gramoty_delay10_frame174.png'
p490
I0
sS'autodizel_delay10_frame258.png'
p491
I0
sS'knyaz_vladimir_delay5_frame123.png'
p492
I1
sS'autodizel_delay10_frame304.png'
p493
I1
sS'verit_gramoty_delay10_frame006.png'
p494
I0
sS'neftyanoe_mesto_delay5_frame095.png'
p495
I0
sS'knyaz_vladimir_delay5_frame126.png'
p496
I1
sS'verit_gramoty_delay10_frame029.png'
p497
I0
sS'knyaz_vladimir_delay5_frame175.png'
p498
I0
sS'autodizel_delay10_frame230.png'
p499
I1
sS'autodizel_delay10_frame273.png'
p500
I1
sS'knyaz_vladimir_delay5_frame048.png'
p501
I0
sS'verit_gramoty_delay10_frame113.png'
p502
I0
sS'verit_gramoty_delay10_frame148.png'
p503
I1
sS'verit_gramoty_delay10_frame155.png'
p504
I1
sS'verit_gramoty_delay10_frame097.png'
p505
I0
sS'knyaz_vladimir_delay5_frame114.png'
p506
I0
sS'autodizel_delay10_frame149.png'
p507
I1
sS'neftyanoe_mesto_delay5_frame068.png'
p508
I1
sS'verit_gramoty_delay10_frame074.png'
p509
I0
sS'autodizel_delay10_frame269.png'
p510
I1
sS'knyaz_vladimir_delay5_frame024.png'
p511
I1
sS'autodizel_delay10_frame047.png'
p512
I0
sS'autodizel_delay10_frame285.png'
p513
I1
sS'autodizel_delay10_frame268.png'
p514
I1
sS'autodizel_delay10_frame247.png'
p515
I0
sS'verit_gramoty_delay10_frame018.png'
p516
I1
sS'autodizel_delay10_frame381.png'
p517
I1
sS'knyaz_vladimir_delay5_frame124.png'
p518
I1
sS'knyaz_vladimir_delay5_frame071.png'
p519
I0
sS'autodizel_delay10_frame266.png'
p520
I0
sS'autodizel_delay10_frame169.png'
p521
I0
sS'autodizel_delay10_frame070.png'
p522
I1
sS'knyaz_vladimir_delay5_frame010.png'
p523
I1
sS'autodizel_delay10_frame041.png'
p524
I1
sS'autodizel_delay10_frame223.png'
p525
I1
sS'autodizel_delay10_frame107.png'
p526
I1
sS'autodizel_delay10_frame016.png'
p527
I0
sS'autodizel_delay10_frame228.png'
p528
I1
sS'autodizel_delay10_frame238.png'
p529
I0
sS'autodizel_delay10_frame335.png'
p530
I1
sS'knyaz_vladimir_delay5_frame103.png'
p531
I0
sS'autodizel_delay10_frame218.png'
p532
I1
sS'verit_gramoty_delay10_frame183.png'
p533
I1
sS'autodizel_delay10_frame177.png'
p534
I1
sS'autodizel_delay10_frame055.png'
p535
I0
sS'verit_gramoty_delay10_frame176.png'
p536
I1
sS'autodizel_delay10_frame105.png'
p537
I1
sS'verit_gramoty_delay10_frame166.png'
p538
I0
sS'knyaz_vladimir_delay5_frame121.png'
p539
I1
sS'autodizel_delay10_frame324.png'
p540
I0
sS'autodizel_delay10_frame190.png'
p541
I0
sS'knyaz_vladimir_delay5_frame016.png'
p542
I1
sS'verit_gramoty_delay10_frame106.png'
p543
I0
sS'verit_gramoty_delay10_frame066.png'
p544
I1
sS'autodizel_delay10_frame171.png'
p545
I0
sS'knyaz_vladimir_delay5_frame047.png'
p546
I0
sS'neftyanoe_mesto_delay5_frame039.png'
p547
I1
sS'autodizel_delay10_frame341.png'
p548
I0
sS'verit_gramoty_delay10_frame021.png'
p549
I1
sS'autodizel_delay10_frame309.png'
p550
I0
sS'verit_gramoty_delay10_frame092.png'
p551
I1
sS'autodizel_delay10_frame287.png'
p552
I1
sS'autodizel_delay10_frame351.png'
p553
I1
sS'autodizel_delay10_frame349.png'
p554
I0
sS'autodizel_delay10_frame321.png'
p555
I1
sS'neftyanoe_mesto_delay5_frame004.png'
p556
I1
sS'autodizel_delay10_frame303.png'
p557
I1
sS'autodizel_delay10_frame318.png'
p558
I0
sS'autodizel_delay10_frame090.png'
p559
I1
sS'verit_gramoty_delay10_frame010.png'
p560
I0
sS'verit_gramoty_delay10_frame111.png'
p561
I0
sS'autodizel_delay10_frame355.png'
p562
I0
sS'autodizel_delay10_frame123.png'
p563
I0
sS'autodizel_delay10_frame248.png'
p564
I1
sS'verit_gramoty_delay10_frame043.png'
p565
I1
sS'neftyanoe_mesto_delay5_frame094.png'
p566
I0
sS'neftyanoe_mesto_delay5_frame005.png'
p567
I0
sS'verit_gramoty_delay10_frame054.png'
p568
I0
sS'verit_gramoty_delay10_frame065.png'
p569
I1
sS'autodizel_delay10_frame236.png'
p570
I0
sS'autodizel_delay10_frame378.png'
p571
I0
sS'autodizel_delay10_frame292.png'
p572
I0
sS'verit_gramoty_delay10_frame130.png'
p573
I0
sS'knyaz_vladimir_delay5_frame064.png'
p574
I0
sS'knyaz_vladimir_delay5_frame137.png'
p575
I1
sS'neftyanoe_mesto_delay5_frame010.png'
p576
I1
sS'knyaz_vladimir_delay5_frame031.png'
p577
I1
sS'autodizel_delay10_frame207.png'
p578
I0
sS'autodizel_delay10_frame065.png'
p579
I1
sS'knyaz_vladimir_delay5_frame159.png'
p580
I0
sS'autodizel_delay10_frame283.png'
p581
I0
sS'knyaz_vladimir_delay5_frame139.png'
p582
I1
sS'autodizel_delay10_frame350.png'
p583
I1
sS'neftyanoe_mesto_delay5_frame056.png'
p584
I1
sS'autodizel_delay10_frame182.png'
p585
I1
sS'autodizel_delay10_frame023.png'
p586
I1
sS'autodizel_delay10_frame007.png'
p587
I1
sS'autodizel_delay10_frame091.png'
p588
I1
sS'knyaz_vladimir_delay5_frame019.png'
p589
I1
sS'verit_gramoty_delay10_frame139.png'
p590
I0
sS'verit_gramoty_delay10_frame093.png'
p591
I1
sS'autodizel_delay10_frame225.png'
p592
I1
sS'verit_gramoty_delay10_frame098.png'
p593
I1
sS'autodizel_delay10_frame164.png'
p594
I0
sS'verit_gramoty_delay10_frame171.png'
p595
I1
sS'autodizel_delay10_frame035.png'
p596
I1
sS'autodizel_delay10_frame362.png'
p597
I1
sS'autodizel_delay10_frame298.png'
p598
I1
sS'verit_gramoty_delay10_frame031.png'
p599
I1
sS'autodizel_delay10_frame385.png'
p600
I1
sS'knyaz_vladimir_delay5_frame091.png'
p601
I0
sS'knyaz_vladimir_delay5_frame039.png'
p602
I1
sS'knyaz_vladimir_delay5_frame004.png'
p603
I0
sS'autodizel_delay10_frame071.png'
p604
I1
sS'autodizel_delay10_frame373.png'
p605
I1
sS'autodizel_delay10_frame162.png'
p606
I1
sS'autodizel_delay10_frame222.png'
p607
I1
sS'knyaz_vladimir_delay5_frame092.png'
p608
I0
sS'autodizel_delay10_frame113.png'
p609
I1
sS'verit_gramoty_delay10_frame085.png'
p610
I0
sS'autodizel_delay10_frame337.png'
p611
I0
sS'knyaz_vladimir_delay5_frame009.png'
p612
I1
sS'autodizel_delay10_frame089.png'
p613
I1
sS'verit_gramoty_delay10_frame012.png'
p614
I0
sS'verit_gramoty_delay10_frame104.png'
p615
I0
sS'autodizel_delay10_frame338.png'
p616
I0
sS'autodizel_delay10_frame234.png'
p617
I0
sS'autodizel_delay10_frame253.png'
p618
I1
sS'autodizel_delay10_frame359.png'
p619
I1
sS'autodizel_delay10_frame220.png'
p620
I0
sS'autodizel_delay10_frame374.png'
p621
I1
sS'neftyanoe_mesto_delay5_frame016.png'
p622
I1
sS'autodizel_delay10_frame011.png'
p623
I1
sS'autodizel_delay10_frame368.png'
p624
I1
sS'verit_gramoty_delay10_frame162.png'
p625
I0
sS'autodizel_delay10_frame176.png'
p626
I0
sS'autodizel_delay10_frame087.png'
p627
I1
sS'autodizel_delay10_frame316.png'
p628
I0
sS'verit_gramoty_delay10_frame056.png'
p629
I1
sS'verit_gramoty_delay10_frame126.png'
p630
I0
sS'autodizel_delay10_frame232.png'
p631
I1
sS'verit_gramoty_delay10_frame007.png'
p632
I0
sS'autodizel_delay10_frame180.png'
p633
I0
sS'verit_gramoty_delay10_frame063.png'
p634
I1
sS'autodizel_delay10_frame017.png'
p635
I1
sS'autodizel_delay10_frame301.png'
p636
I1
sS'verit_gramoty_delay10_frame120.png'
p637
I0
sS'autodizel_delay10_frame098.png'
p638
I1
sS'autodizel_delay10_frame360.png'
p639
I1
sS'knyaz_vladimir_delay5_frame173.png'
p640
I0
sS'verit_gramoty_delay10_frame016.png'
p641
I0
sS'verit_gramoty_delay10_frame068.png'
p642
I1
sS'autodizel_delay10_frame002.png'
p643
I1
sS'knyaz_vladimir_delay5_frame102.png'
p644
I0
sS'autodizel_delay10_frame331.png'
p645
I0
sS'knyaz_vladimir_delay5_frame180.png'
p646
I0
sS'autodizel_delay10_frame138.png'
p647
I1
sS'neftyanoe_mesto_delay5_frame103.png'
p648
I0
sS'verit_gramoty_delay10_frame014.png'
p649
I1
sS'autodizel_delay10_frame246.png'
p650
I1
sS'neftyanoe_mesto_delay5_frame014.png'
p651
I1
sS'autodizel_delay10_frame004.png'
p652
I0
sS'autodizel_delay10_frame014.png'
p653
I1
sS'autodizel_delay10_frame159.png'
p654
I0
sS'autodizel_delay10_frame201.png'
p655
I0
sS'verit_gramoty_delay10_frame168.png'
p656
I1
sS'autodizel_delay10_frame133.png'
p657
I0
sS'verit_gramoty_delay10_frame024.png'
p658
I1
sS'autodizel_delay10_frame136.png'
p659
I1
sS'knyaz_vladimir_delay5_frame150.png'
p660
I1
sS'autodizel_delay10_frame088.png'
p661
I1
sS'verit_gramoty_delay10_frame071.png'
p662
I1
sS'verit_gramoty_delay10_frame134.png'
p663
I1
sS'autodizel_delay10_frame142.png'
p664
I1
sS'autodizel_delay10_frame364.png'
p665
I1
sS'autodizel_delay10_frame101.png'
p666
I0
sS'verit_gramoty_delay10_frame135.png'
p667
I0
sS'verit_gramoty_delay10_frame124.png'
p668
I0
sS'verit_gramoty_delay10_frame149.png'
p669
I0
sS'autodizel_delay10_frame037.png'
p670
I0
sS'verit_gramoty_delay10_frame147.png'
p671
I0
sS'autodizel_delay10_frame124.png'
p672
I1
sS'knyaz_vladimir_delay5_frame179.png'
p673
I0
sS'autodizel_delay10_frame209.png'
p674
I0
sS'verit_gramoty_delay10_frame059.png'
p675
I1
sS'autodizel_delay10_frame307.png'
p676
I1
sS'autodizel_delay10_frame153.png'
p677
I1
sS'knyaz_vladimir_delay5_frame037.png'
p678
I1
sS'autodizel_delay10_frame192.png'
p679
I1
sS'autodizel_delay10_frame328.png'
p680
I1
sS'autodizel_delay10_frame103.png'
p681
I1
sS'autodizel_delay10_frame170.png'
p682
I0
sS'autodizel_delay10_frame025.png'
p683
I0
sS'verit_gramoty_delay10_frame033.png'
p684
I0
sS'verit_gramoty_delay10_frame087.png'
p685
I0
sS'autodizel_delay10_frame400.png'
p686
I0
sS'verit_gramoty_delay10_frame079.png'
p687
I0
sS'autodizel_delay10_frame333.png'
p688
I0
sS'autodizel_delay10_frame305.png'
p689
I0
sS'autodizel_delay10_frame075.png'
p690
I0
sS'verit_gramoty_delay10_frame044.png'
p691
I1
sS'knyaz_vladimir_delay5_frame005.png'
p692
I0
sS'autodizel_delay10_frame199.png'
p693
I0
sS'verit_gramoty_delay10_frame061.png'
p694
I0
sS'autodizel_delay10_frame296.png'
p695
I0
sS'verit_gramoty_delay10_frame089.png'
p696
I1
sS'autodizel_delay10_frame286.png'
p697
I1
sS'verit_gramoty_delay10_frame121.png'
p698
I1
sS'knyaz_vladimir_delay5_frame049.png'
p699
I0
sS'autodizel_delay10_frame395.png'
p700
I0
sS'verit_gramoty_delay10_frame123.png'
p701
I0
sS'verit_gramoty_delay10_frame049.png'
p702
I1
sS'autodizel_delay10_frame203.png'
p703
I0
sS'autodizel_delay10_frame077.png'
p704
I1
sS'knyaz_vladimir_delay5_frame002.png'
p705
I0
sS'neftyanoe_mesto_delay5_frame029.png'
p706
I0
s.